target datalayout = "e-m:e-p270:32:32-p271:32:32-p272:64:64-i64:64-i128:128-f80:128-n8:16:32:64-S128"
target triple = "x86_64-pc-linux-gnu"

%"class.ue2::graph_detail::vertex_descriptor" = type { ptr, i64 }
%"struct.ue2::RoseEdgeProps" = type <{ i64, i32, i32, i32, i8, [3 x i8], i32, [4 x i8] }>
%"struct.ue2::(anonymous namespace)::EdgeAndVertex" = type { ptr, %"class.ue2::graph_detail::vertex_descriptor", ptr }

; Function Attrs: mustprogress nounwind uwtable
define linkonce_odr hidden noundef zeroext i1 @_ZNK3ue212graph_detail17vertex_descriptorINS_9ue2_graphINS_9RoseGraphENS_15RoseVertexPropsENS_13RoseEdgePropsEEEEeqES7_(ptr noundef nonnull align 8 dereferenceable(16) %0, ptr %1, i64 %2) #1 comdat align 2 {
  %4 = alloca %"class.ue2::graph_detail::vertex_descriptor", align 8
  %5 = alloca ptr, align 8
  %6 = getelementptr inbounds nuw { ptr, i64 }, ptr %4, i32 0, i32 0
  store ptr %1, ptr %6, align 8
  %7 = getelementptr inbounds nuw { ptr, i64 }, ptr %4, i32 0, i32 1
  store i64 %2, ptr %7, align 8
  store ptr %0, ptr %5, align 8
  %8 = load ptr, ptr %5, align 8
  %9 = getelementptr inbounds nuw %"class.ue2::graph_detail::vertex_descriptor", ptr %8, i32 0, i32 0
  %10 = load ptr, ptr %9, align 8
  %11 = getelementptr inbounds nuw %"class.ue2::graph_detail::vertex_descriptor", ptr %4, i32 0, i32 0
  %12 = load ptr, ptr %11, align 8
  %13 = icmp eq ptr %10, %12
  ret i1 %13
}

; Function Attrs: mustprogress nounwind uwtable
define linkonce_odr hidden noundef zeroext i1 @_ZNK3ue212graph_detail17vertex_descriptorINS_9ue2_graphINS_9RoseGraphENS_15RoseVertexPropsENS_13RoseEdgePropsEEEEltES7_(ptr noundef nonnull align 8 dereferenceable(16) %0, ptr %1, i64 %2) #1 comdat align 2 {
  %4 = alloca i1, align 1
  %5 = alloca %"class.ue2::graph_detail::vertex_descriptor", align 8
  %6 = alloca ptr, align 8
  %7 = getelementptr inbounds nuw { ptr, i64 }, ptr %5, i32 0, i32 0
  store ptr %1, ptr %7, align 8
  %8 = getelementptr inbounds nuw { ptr, i64 }, ptr %5, i32 0, i32 1
  store i64 %2, ptr %8, align 8
  store ptr %0, ptr %6, align 8
  %9 = load ptr, ptr %6, align 8
  %10 = getelementptr inbounds nuw %"class.ue2::graph_detail::vertex_descriptor", ptr %9, i32 0, i32 0
  %11 = load ptr, ptr %10, align 8
  %12 = icmp ne ptr %11, null
  br i1 %12, label %13, label %23

13:                                               ; preds = %3
  %14 = getelementptr inbounds nuw %"class.ue2::graph_detail::vertex_descriptor", ptr %5, i32 0, i32 0
  %15 = load ptr, ptr %14, align 8
  %16 = icmp ne ptr %15, null
  br i1 %16, label %17, label %23

17:                                               ; preds = %13
  %18 = getelementptr inbounds nuw %"class.ue2::graph_detail::vertex_descriptor", ptr %9, i32 0, i32 1
  %19 = load i64, ptr %18, align 8
  %20 = getelementptr inbounds nuw %"class.ue2::graph_detail::vertex_descriptor", ptr %5, i32 0, i32 1
  %21 = load i64, ptr %20, align 8
  %22 = icmp ult i64 %19, %21
  store i1 %22, ptr %4, align 1
  br label %29

23:                                               ; preds = %13, %3
  %24 = getelementptr inbounds nuw %"class.ue2::graph_detail::vertex_descriptor", ptr %9, i32 0, i32 0
  %25 = load ptr, ptr %24, align 8
  %26 = getelementptr inbounds nuw %"class.ue2::graph_detail::vertex_descriptor", ptr %5, i32 0, i32 0
  %27 = load ptr, ptr %26, align 8
  %28 = icmp ult ptr %25, %27
  store i1 %28, ptr %4, align 1
  br label %29

29:                                               ; preds = %23, %17
  %30 = load i1, ptr %4, align 1
  ret i1 %30
}

; Function Attrs: mustprogress nounwind uwtable
define linkonce_odr hidden noundef zeroext i1 @_ZN3ue2neERKNS_12graph_detail17vertex_descriptorINS_9ue2_graphINS_9RoseGraphENS_15RoseVertexPropsENS_13RoseEdgePropsEEEEES9_(ptr noundef nonnull align 8 dereferenceable(16) %0, ptr noundef nonnull align 8 dereferenceable(16) %1) #1 comdat {
  %3 = alloca ptr, align 8
  %4 = alloca ptr, align 8
  %5 = alloca %"class.ue2::graph_detail::vertex_descriptor", align 8
  store ptr %0, ptr %3, align 8
  store ptr %1, ptr %4, align 8
  %6 = load ptr, ptr %3, align 8
  %7 = load ptr, ptr %4, align 8
  call void @llvm.memcpy.p0.p0.i64(ptr align 8 %5, ptr align 8 %7, i64 16, i1 false)
  %8 = getelementptr inbounds nuw { ptr, i64 }, ptr %5, i32 0, i32 0
  %9 = load ptr, ptr %8, align 8
  %10 = getelementptr inbounds nuw { ptr, i64 }, ptr %5, i32 0, i32 1
  %11 = load i64, ptr %10, align 8
  %12 = call noundef zeroext i1 @_ZNK3ue212graph_detail17vertex_descriptorINS_9ue2_graphINS_9RoseGraphENS_15RoseVertexPropsENS_13RoseEdgePropsEEEEeqES7_(ptr noundef nonnull align 8 dereferenceable(16) %6, ptr %9, i64 %11)
  %13 = xor i1 %12, true
  ret i1 %13
}

; Function Attrs: mustprogress nounwind uwtable
define internal noundef zeroext i1 @_ZNK3ue212_GLOBAL__N_113EdgeAndVertexltERKS1_(ptr noundef nonnull align 8 dereferenceable(32) %0, ptr noundef nonnull align 8 dereferenceable(32) %1) unnamed_addr #1 align 2 {
  %3 = alloca i1, align 1
  %4 = alloca ptr, align 8
  %5 = alloca ptr, align 8
  %6 = alloca %"class.ue2::graph_detail::vertex_descriptor", align 8
  store ptr %0, ptr %4, align 8
  store ptr %1, ptr %5, align 8
  %7 = load ptr, ptr %4, align 8
  %8 = getelementptr inbounds nuw %"struct.ue2::(anonymous namespace)::EdgeAndVertex", ptr %7, i32 0, i32 1
  %9 = load ptr, ptr %5, align 8
  %10 = getelementptr inbounds nuw %"struct.ue2::(anonymous namespace)::EdgeAndVertex", ptr %9, i32 0, i32 1
  %11 = call noundef zeroext i1 @_ZN3ue2neERKNS_12graph_detail17vertex_descriptorINS_9ue2_graphINS_9RoseGraphENS_15RoseVertexPropsENS_13RoseEdgePropsEEEEES9_(ptr noundef nonnull align 8 dereferenceable(16) %8, ptr noundef nonnull align 8 dereferenceable(16) %10)
  br i1 %11, label %12, label %21

12:                                               ; preds = %2
  %13 = getelementptr inbounds nuw %"struct.ue2::(anonymous namespace)::EdgeAndVertex", ptr %7, i32 0, i32 1
  %14 = load ptr, ptr %5, align 8
  %15 = getelementptr inbounds nuw %"struct.ue2::(anonymous namespace)::EdgeAndVertex", ptr %14, i32 0, i32 1
  call void @llvm.memcpy.p0.p0.i64(ptr align 8 %6, ptr align 8 %15, i64 16, i1 false)
  %16 = getelementptr inbounds nuw { ptr, i64 }, ptr %6, i32 0, i32 0
  %17 = load ptr, ptr %16, align 8
  %18 = getelementptr inbounds nuw { ptr, i64 }, ptr %6, i32 0, i32 1
  %19 = load i64, ptr %18, align 8
  %20 = call noundef zeroext i1 @_ZNK3ue212graph_detail17vertex_descriptorINS_9ue2_graphINS_9RoseGraphENS_15RoseVertexPropsENS_13RoseEdgePropsEEEEltES7_(ptr noundef nonnull align 8 dereferenceable(16) %13, ptr %17, i64 %19)
  store i1 %20, ptr %3, align 1
  br label %98

21:                                               ; preds = %2
  %22 = getelementptr inbounds nuw %"struct.ue2::(anonymous namespace)::EdgeAndVertex", ptr %7, i32 0, i32 2
  %23 = load ptr, ptr %22, align 8
  %24 = getelementptr inbounds nuw %"struct.ue2::RoseEdgeProps", ptr %23, i32 0, i32 1
  %25 = load i32, ptr %24, align 8
  %26 = load ptr, ptr %5, align 8
  %27 = getelementptr inbounds nuw %"struct.ue2::(anonymous namespace)::EdgeAndVertex", ptr %26, i32 0, i32 2
  %28 = load ptr, ptr %27, align 8
  %29 = getelementptr inbounds nuw %"struct.ue2::RoseEdgeProps", ptr %28, i32 0, i32 1
  %30 = load i32, ptr %29, align 8
  %31 = icmp ne i32 %25, %30
  br i1 %31, label %32, label %43

32:                                               ; preds = %21
  %33 = getelementptr inbounds nuw %"struct.ue2::(anonymous namespace)::EdgeAndVertex", ptr %7, i32 0, i32 2
  %34 = load ptr, ptr %33, align 8
  %35 = getelementptr inbounds nuw %"struct.ue2::RoseEdgeProps", ptr %34, i32 0, i32 1
  %36 = load i32, ptr %35, align 8
  %37 = load ptr, ptr %5, align 8
  %38 = getelementptr inbounds nuw %"struct.ue2::(anonymous namespace)::EdgeAndVertex", ptr %37, i32 0, i32 2
  %39 = load ptr, ptr %38, align 8
  %40 = getelementptr inbounds nuw %"struct.ue2::RoseEdgeProps", ptr %39, i32 0, i32 1
  %41 = load i32, ptr %40, align 8
  %42 = icmp ult i32 %36, %41
  store i1 %42, ptr %3, align 1
  br label %98

43:                                               ; preds = %21
  %44 = getelementptr inbounds nuw %"struct.ue2::(anonymous namespace)::EdgeAndVertex", ptr %7, i32 0, i32 2
  %45 = load ptr, ptr %44, align 8
  %46 = getelementptr inbounds nuw %"struct.ue2::RoseEdgeProps", ptr %45, i32 0, i32 2
  %47 = load i32, ptr %46, align 4
  %48 = load ptr, ptr %5, align 8
  %49 = getelementptr inbounds nuw %"struct.ue2::(anonymous namespace)::EdgeAndVertex", ptr %48, i32 0, i32 2
  %50 = load ptr, ptr %49, align 8
  %51 = getelementptr inbounds nuw %"struct.ue2::RoseEdgeProps", ptr %50, i32 0, i32 2
  %52 = load i32, ptr %51, align 4
  %53 = icmp ne i32 %47, %52
  br i1 %53, label %54, label %65

54:                                               ; preds = %43
  %55 = getelementptr inbounds nuw %"struct.ue2::(anonymous namespace)::EdgeAndVertex", ptr %7, i32 0, i32 2
  %56 = load ptr, ptr %55, align 8
  %57 = getelementptr inbounds nuw %"struct.ue2::RoseEdgeProps", ptr %56, i32 0, i32 2
  %58 = load i32, ptr %57, align 4
  %59 = load ptr, ptr %5, align 8
  %60 = getelementptr inbounds nuw %"struct.ue2::(anonymous namespace)::EdgeAndVertex", ptr %59, i32 0, i32 2
  %61 = load ptr, ptr %60, align 8
  %62 = getelementptr inbounds nuw %"struct.ue2::RoseEdgeProps", ptr %61, i32 0, i32 2
  %63 = load i32, ptr %62, align 4
  %64 = icmp ult i32 %58, %63
  store i1 %64, ptr %3, align 1
  br label %98

65:                                               ; preds = %43
  %66 = getelementptr inbounds nuw %"struct.ue2::(anonymous namespace)::EdgeAndVertex", ptr %7, i32 0, i32 2
  %67 = load ptr, ptr %66, align 8
  %68 = getelementptr inbounds nuw %"struct.ue2::RoseEdgeProps", ptr %67, i32 0, i32 3
  %69 = load i32, ptr %68, align 8
  %70 = load ptr, ptr %5, align 8
  %71 = getelementptr inbounds nuw %"struct.ue2::(anonymous namespace)::EdgeAndVertex", ptr %70, i32 0, i32 2
  %72 = load ptr, ptr %71, align 8
  %73 = getelementptr inbounds nuw %"struct.ue2::RoseEdgeProps", ptr %72, i32 0, i32 3
  %74 = load i32, ptr %73, align 8
  %75 = icmp ne i32 %69, %74
  br i1 %75, label %76, label %87

76:                                               ; preds = %65
  %77 = getelementptr inbounds nuw %"struct.ue2::(anonymous namespace)::EdgeAndVertex", ptr %7, i32 0, i32 2
  %78 = load ptr, ptr %77, align 8
  %79 = getelementptr inbounds nuw %"struct.ue2::RoseEdgeProps", ptr %78, i32 0, i32 3
  %80 = load i32, ptr %79, align 8
  %81 = load ptr, ptr %5, align 8
  %82 = getelementptr inbounds nuw %"struct.ue2::(anonymous namespace)::EdgeAndVertex", ptr %81, i32 0, i32 2
  %83 = load ptr, ptr %82, align 8
  %84 = getelementptr inbounds nuw %"struct.ue2::RoseEdgeProps", ptr %83, i32 0, i32 3
  %85 = load i32, ptr %84, align 8
  %86 = icmp ult i32 %80, %85
  store i1 %86, ptr %3, align 1
  br label %98

87:                                               ; preds = %65
  %88 = getelementptr inbounds nuw %"struct.ue2::(anonymous namespace)::EdgeAndVertex", ptr %7, i32 0, i32 2
  %89 = load ptr, ptr %88, align 8
  %90 = getelementptr inbounds nuw %"struct.ue2::RoseEdgeProps", ptr %89, i32 0, i32 6
  %91 = load i32, ptr %90, align 8
  %92 = load ptr, ptr %5, align 8
  %93 = getelementptr inbounds nuw %"struct.ue2::(anonymous namespace)::EdgeAndVertex", ptr %92, i32 0, i32 2
  %94 = load ptr, ptr %93, align 8
  %95 = getelementptr inbounds nuw %"struct.ue2::RoseEdgeProps", ptr %94, i32 0, i32 6
  %96 = load i32, ptr %95, align 8
  %97 = icmp slt i32 %91, %96
  store i1 %97, ptr %3, align 1
  br label %98

98:                                               ; preds = %87, %76, %54, %32, %12
  %99 = load i1, ptr %3, align 1
  ret i1 %99
}