; Function Attrs: mustprogress nofree norecurse nosync nounwind willreturn memory(read, inaccessiblemem: none) uwtable
define internal noundef zeroext i1 @_ZNK3ue212_GLOBAL__N_113EdgeAndVertexltERKS1_(ptr noundef nonnull readonly align 8 captures(none) dereferenceable(32) %0, ptr noundef nonnull readonly align 8 captures(none) dereferenceable(32) %1) unnamed_addr #15 align 2 {
  %3 = getelementptr inbounds nuw i8, ptr %0, i64 8
  %4 = getelementptr inbounds nuw i8, ptr %1, i64 8
  %.sroa.0.0.copyload.i = load ptr, ptr %4, align 8
  %5 = load ptr, ptr %3, align 8
  %.not19 = icmp eq ptr %5, %.sroa.0.0.copyload.i
  br i1 %.not19, label %15, label %6

6:                                                ; preds = %2
  %7 = icmp ne ptr %5, null
  %8 = icmp ne ptr %.sroa.0.0.copyload.i, null
  %or.cond.i = and i1 %8, %7
  br i1 %or.cond.i, label %9, label %13

9:                                                ; preds = %6
  %.sroa.2.0..sroa_idx = getelementptr inbounds nuw i8, ptr %1, i64 16
  %.sroa.2.0.copyload = load i64, ptr %.sroa.2.0..sroa_idx, align 8
  %10 = getelementptr inbounds nuw i8, ptr %0, i64 16
  %11 = load i64, ptr %10, align 8
  %12 = icmp ult i64 %11, %.sroa.2.0.copyload
  br label %_ZNK3ue212graph_detail17vertex_descriptorINS_9ue2_graphINS_9RoseGraphENS_15RoseVertexPropsENS_13RoseEdgePropsEEEEltES7_.exit

13:                                               ; preds = %6
  %14 = icmp ult ptr %5, %.sroa.0.0.copyload.i
  br label %_ZNK3ue212graph_detail17vertex_descriptorINS_9ue2_graphINS_9RoseGraphENS_15RoseVertexPropsENS_13RoseEdgePropsEEEEltES7_.exit

15:                                               ; preds = %2
  %16 = getelementptr inbounds nuw i8, ptr %0, i64 24
  %17 = load ptr, ptr %16, align 8
  %18 = getelementptr inbounds nuw i8, ptr %17, i64 8
  %19 = load i32, ptr %18, align 8
  %20 = getelementptr inbounds nuw i8, ptr %1, i64 24
  %21 = load ptr, ptr %20, align 8
  %22 = getelementptr inbounds nuw i8, ptr %21, i64 8
  %23 = load i32, ptr %22, align 8
  %.not = icmp eq i32 %19, %23
  br i1 %.not, label %26, label %24

24:                                               ; preds = %15
  %25 = icmp ult i32 %19, %23
  br label %_ZNK3ue212graph_detail17vertex_descriptorINS_9ue2_graphINS_9RoseGraphENS_15RoseVertexPropsENS_13RoseEdgePropsEEEEltES7_.exit

26:                                               ; preds = %15
  %27 = getelementptr inbounds nuw i8, ptr %17, i64 12
  %28 = load i32, ptr %27, align 4
  %29 = getelementptr inbounds nuw i8, ptr %21, i64 12
  %30 = load i32, ptr %29, align 4
  %.not17 = icmp eq i32 %28, %30
  br i1 %.not17, label %33, label %31

31:                                               ; preds = %26
  %32 = icmp ult i32 %28, %30
  br label %_ZNK3ue212graph_detail17vertex_descriptorINS_9ue2_graphINS_9RoseGraphENS_15RoseVertexPropsENS_13RoseEdgePropsEEEEltES7_.exit

33:                                               ; preds = %26
  %34 = getelementptr inbounds nuw i8, ptr %17, i64 16
  %35 = load i32, ptr %34, align 8
  %36 = getelementptr inbounds nuw i8, ptr %21, i64 16
  %37 = load i32, ptr %36, align 8
  %.not18 = icmp eq i32 %35, %37
  br i1 %.not18, label %40, label %38

38:                                               ; preds = %33
  %39 = icmp ult i32 %35, %37
  br label %_ZNK3ue212graph_detail17vertex_descriptorINS_9ue2_graphINS_9RoseGraphENS_15RoseVertexPropsENS_13RoseEdgePropsEEEEltES7_.exit

40:                                               ; preds = %33
  %41 = getelementptr inbounds nuw i8, ptr %17, i64 24
  %42 = load i32, ptr %41, align 8
  %43 = getelementptr inbounds nuw i8, ptr %21, i64 24
  %44 = load i32, ptr %43, align 8
  %45 = icmp slt i32 %42, %44
  br label %_ZNK3ue212graph_detail17vertex_descriptorINS_9ue2_graphINS_9RoseGraphENS_15RoseVertexPropsENS_13RoseEdgePropsEEEEltES7_.exit

_ZNK3ue212graph_detail17vertex_descriptorINS_9ue2_graphINS_9RoseGraphENS_15RoseVertexPropsENS_13RoseEdgePropsEEEEltES7_.exit: ; preds = %13, %9, %40, %38, %31, %24
  %.0 = phi i1 [ %25, %24 ], [ %32, %31 ], [ %39, %38 ], [ %45, %40 ], [ %12, %9 ], [ %14, %13 ]
  ret i1 %.0
}